ccopy_reg
_reconstructor
p1
(cexeco_engine.sweep
HashableDict
p2
c__builtin__
dict
p3
(dp4
S'latency'
p5
I665
sS'iteration'
p6
I1
sS'benchmarks'
p7
S'performances'
p8
stRp9
.ccopy_reg
_reconstructor
p1
(cexeco_engine.sweep
HashableDict
p2
c__builtin__
dict
p3
(dp4
S'latency'
p5
I33
sS'iteration'
p6
I4
sS'benchmarks'
p7
S'Contentions'
p8
stRp9
.ccopy_reg
_reconstructor
p1
(cexeco_engine.sweep
HashableDict
p2
c__builtin__
dict
p3
(dp4
S'latency'
p5
I20
sS'iteration'
p6
I1
sS'benchmarks'
p7
S'performances'
p8
stRp9
.ccopy_reg
_reconstructor
p1
(cexeco_engine.sweep
HashableDict
p2
c__builtin__
dict
p3
(dp4
S'latency'
p5
I90
sS'iteration'
p6
I1
sS'benchmarks'
p7
S'performances'
p8
stRp9
.ccopy_reg
_reconstructor
p1
(cexeco_engine.sweep
HashableDict
p2
c__builtin__
dict
p3
(dp4
S'latency'
p5
I20
sS'iteration'
p6
I4
sS'benchmarks'
p7
S'performances'
p8
stRp9
.ccopy_reg
_reconstructor
p1
(cexeco_engine.sweep
HashableDict
p2
c__builtin__
dict
p3
(dp4
S'latency'
p5
I20
sS'iteration'
p6
I2
sS'benchmarks'
p7
S'performances'
p8
stRp9
.ccopy_reg
_reconstructor
p1
(cexeco_engine.sweep
HashableDict
p2
c__builtin__
dict
p3
(dp4
S'latency'
p5
I665
sS'iteration'
p6
I3
sS'benchmarks'
p7
S'Contentions'
p8
stRp9
.ccopy_reg
_reconstructor
p1
(cexeco_engine.sweep
HashableDict
p2
c__builtin__
dict
p3
(dp4
S'latency'
p5
I244
sS'iteration'
p6
I5
sS'benchmarks'
p7
S'convergence'
p8
stRp9
.ccopy_reg
_reconstructor
p1
(cexeco_engine.sweep
HashableDict
p2
c__builtin__
dict
p3
(dp4
S'latency'
p5
I665
sS'iteration'
p6
I4
sS'benchmarks'
p7
S'convergence'
p8
stRp9
.ccopy_reg
_reconstructor
p1
(cexeco_engine.sweep
HashableDict
p2
c__builtin__
dict
p3
(dp4
S'latency'
p5
I244
sS'iteration'
p6
I1
sS'benchmarks'
p7
S'Contentions'
p8
stRp9
.ccopy_reg
_reconstructor
p1
(cexeco_engine.sweep
HashableDict
p2
c__builtin__
dict
p3
(dp4
S'latency'
p5
I1000
sS'iteration'
p6
I4
sS'benchmarks'
p7
S'performances'
p8
stRp9
.ccopy_reg
_reconstructor
p1
(cexeco_engine.sweep
HashableDict
p2
c__builtin__
dict
p3
(dp4
S'latency'
p5
I33
sS'iteration'
p6
I3
sS'benchmarks'
p7
S'Contentions'
p8
stRp9
.ccopy_reg
_reconstructor
p1
(cexeco_engine.sweep
HashableDict
p2
c__builtin__
dict
p3
(dp4
S'latency'
p5
I665
sS'iteration'
p6
I3
sS'benchmarks'
p7
S'convergence'
p8
stRp9
.ccopy_reg
_reconstructor
p1
(cexeco_engine.sweep
HashableDict
p2
c__builtin__
dict
p3
(dp4
S'latency'
p5
I665
sS'iteration'
p6
I5
sS'benchmarks'
p7
S'Contentions'
p8
stRp9
.ccopy_reg
_reconstructor
p1
(cexeco_engine.sweep
HashableDict
p2
c__builtin__
dict
p3
(dp4
S'latency'
p5
I403
sS'iteration'
p6
I5
sS'benchmarks'
p7
S'Contentions'
p8
stRp9
.ccopy_reg
_reconstructor
p1
(cexeco_engine.sweep
HashableDict
p2
c__builtin__
dict
p3
(dp4
S'latency'
p5
I1000
sS'iteration'
p6
I3
sS'benchmarks'
p7
S'Contentions'
p8
stRp9
.ccopy_reg
_reconstructor
p1
(cexeco_engine.sweep
HashableDict
p2
c__builtin__
dict
p3
(dp4
S'latency'
p5
I148
sS'iteration'
p6
I4
sS'benchmarks'
p7
S'Contentions'
p8
stRp9
.ccopy_reg
_reconstructor
p1
(cexeco_engine.sweep
HashableDict
p2
c__builtin__
dict
p3
(dp4
S'latency'
p5
I54
sS'iteration'
p6
I2
sS'benchmarks'
p7
S'performances'
p8
stRp9
.ccopy_reg
_reconstructor
p1
(cexeco_engine.sweep
HashableDict
p2
c__builtin__
dict
p3
(dp4
S'latency'
p5
I1000
sS'iteration'
p6
I4
sS'benchmarks'
p7
S'convergence'
p8
stRp9
.ccopy_reg
_reconstructor
p1
(cexeco_engine.sweep
HashableDict
p2
c__builtin__
dict
p3
(dp4
S'latency'
p5
I54
sS'iteration'
p6
I4
sS'benchmarks'
p7
S'performances'
p8
stRp9
.ccopy_reg
_reconstructor
p1
(cexeco_engine.sweep
HashableDict
p2
c__builtin__
dict
p3
(dp4
S'latency'
p5
I148
sS'iteration'
p6
I3
sS'benchmarks'
p7
S'convergence'
p8
stRp9
.ccopy_reg
_reconstructor
p1
(cexeco_engine.sweep
HashableDict
p2
c__builtin__
dict
p3
(dp4
S'latency'
p5
I20
sS'iteration'
p6
I5
sS'benchmarks'
p7
S'performances'
p8
stRp9
.ccopy_reg
_reconstructor
p1
(cexeco_engine.sweep
HashableDict
p2
c__builtin__
dict
p3
(dp4
S'latency'
p5
I20
sS'iteration'
p6
I3
sS'benchmarks'
p7
S'performances'
p8
stRp9
.ccopy_reg
_reconstructor
p1
(cexeco_engine.sweep
HashableDict
p2
c__builtin__
dict
p3
(dp4
S'latency'
p5
I148
sS'iteration'
p6
I4
sS'benchmarks'
p7
S'convergence'
p8
stRp9
.ccopy_reg
_reconstructor
p1
(cexeco_engine.sweep
HashableDict
p2
c__builtin__
dict
p3
(dp4
S'latency'
p5
I1000
sS'iteration'
p6
I1
sS'benchmarks'
p7
S'Contentions'
p8
stRp9
.ccopy_reg
_reconstructor
p1
(cexeco_engine.sweep
HashableDict
p2
c__builtin__
dict
p3
(dp4
S'latency'
p5
I148
sS'iteration'
p6
I3
sS'benchmarks'
p7
S'Contentions'
p8
stRp9
.ccopy_reg
_reconstructor
p1
(cexeco_engine.sweep
HashableDict
p2
c__builtin__
dict
p3
(dp4
S'latency'
p5
I33
sS'iteration'
p6
I1
sS'benchmarks'
p7
S'Contentions'
p8
stRp9
.ccopy_reg
_reconstructor
p1
(cexeco_engine.sweep
HashableDict
p2
c__builtin__
dict
p3
(dp4
S'latency'
p5
I54
sS'iteration'
p6
I1
sS'benchmarks'
p7
S'convergence'
p8
stRp9
.ccopy_reg
_reconstructor
p1
(cexeco_engine.sweep
HashableDict
p2
c__builtin__
dict
p3
(dp4
S'latency'
p5
I90
sS'iteration'
p6
I5
sS'benchmarks'
p7
S'convergence'
p8
stRp9
.ccopy_reg
_reconstructor
p1
(cexeco_engine.sweep
HashableDict
p2
c__builtin__
dict
p3
(dp4
S'latency'
p5
I665
sS'iteration'
p6
I1
sS'benchmarks'
p7
S'Contentions'
p8
stRp9
.ccopy_reg
_reconstructor
p1
(cexeco_engine.sweep
HashableDict
p2
c__builtin__
dict
p3
(dp4
S'latency'
p5
I33
sS'iteration'
p6
I3
sS'benchmarks'
p7
S'convergence'
p8
stRp9
.ccopy_reg
_reconstructor
p1
(cexeco_engine.sweep
HashableDict
p2
c__builtin__
dict
p3
(dp4
S'latency'
p5
I54
sS'iteration'
p6
I2
sS'benchmarks'
p7
S'convergence'
p8
stRp9
.ccopy_reg
_reconstructor
p1
(cexeco_engine.sweep
HashableDict
p2
c__builtin__
dict
p3
(dp4
S'latency'
p5
I1000
sS'iteration'
p6
I1
sS'benchmarks'
p7
S'performances'
p8
stRp9
.ccopy_reg
_reconstructor
p1
(cexeco_engine.sweep
HashableDict
p2
c__builtin__
dict
p3
(dp4
S'latency'
p5
I54
sS'iteration'
p6
I2
sS'benchmarks'
p7
S'Contentions'
p8
stRp9
.ccopy_reg
_reconstructor
p1
(cexeco_engine.sweep
HashableDict
p2
c__builtin__
dict
p3
(dp4
S'latency'
p5
I54
sS'iteration'
p6
I4
sS'benchmarks'
p7
S'Contentions'
p8
stRp9
.ccopy_reg
_reconstructor
p1
(cexeco_engine.sweep
HashableDict
p2
c__builtin__
dict
p3
(dp4
S'latency'
p5
I54
sS'iteration'
p6
I3
sS'benchmarks'
p7
S'performances'
p8
stRp9
.ccopy_reg
_reconstructor
p1
(cexeco_engine.sweep
HashableDict
p2
c__builtin__
dict
p3
(dp4
S'latency'
p5
I54
sS'iteration'
p6
I5
sS'benchmarks'
p7
S'performances'
p8
stRp9
.ccopy_reg
_reconstructor
p1
(cexeco_engine.sweep
HashableDict
p2
c__builtin__
dict
p3
(dp4
S'latency'
p5
I1000
sS'iteration'
p6
I1
sS'benchmarks'
p7
S'convergence'
p8
stRp9
.ccopy_reg
_reconstructor
p1
(cexeco_engine.sweep
HashableDict
p2
c__builtin__
dict
p3
(dp4
S'latency'
p5
I90
sS'iteration'
p6
I2
sS'benchmarks'
p7
S'convergence'
p8
stRp9
.ccopy_reg
_reconstructor
p1
(cexeco_engine.sweep
HashableDict
p2
c__builtin__
dict
p3
(dp4
S'latency'
p5
I33
sS'iteration'
p6
I3
sS'benchmarks'
p7
S'performances'
p8
stRp9
.ccopy_reg
_reconstructor
p1
(cexeco_engine.sweep
HashableDict
p2
c__builtin__
dict
p3
(dp4
S'latency'
p5
I33
sS'iteration'
p6
I4
sS'benchmarks'
p7
S'convergence'
p8
stRp9
.ccopy_reg
_reconstructor
p1
(cexeco_engine.sweep
HashableDict
p2
c__builtin__
dict
p3
(dp4
S'latency'
p5
I20
sS'iteration'
p6
I1
sS'benchmarks'
p7
S'convergence'
p8
stRp9
.ccopy_reg
_reconstructor
p1
(cexeco_engine.sweep
HashableDict
p2
c__builtin__
dict
p3
(dp4
S'latency'
p5
I1000
sS'iteration'
p6
I3
sS'benchmarks'
p7
S'convergence'
p8
stRp9
.ccopy_reg
_reconstructor
p1
(cexeco_engine.sweep
HashableDict
p2
c__builtin__
dict
p3
(dp4
S'latency'
p5
I244
sS'iteration'
p6
I5
sS'benchmarks'
p7
S'Contentions'
p8
stRp9
.ccopy_reg
_reconstructor
p1
(cexeco_engine.sweep
HashableDict
p2
c__builtin__
dict
p3
(dp4
S'latency'
p5
I244
sS'iteration'
p6
I3
sS'benchmarks'
p7
S'convergence'
p8
stRp9
.ccopy_reg
_reconstructor
p1
(cexeco_engine.sweep
HashableDict
p2
c__builtin__
dict
p3
(dp4
S'latency'
p5
I1000
sS'iteration'
p6
I2
sS'benchmarks'
p7
S'Contentions'
p8
stRp9
.ccopy_reg
_reconstructor
p1
(cexeco_engine.sweep
HashableDict
p2
c__builtin__
dict
p3
(dp4
S'latency'
p5
I90
sS'iteration'
p6
I3
sS'benchmarks'
p7
S'performances'
p8
stRp9
.ccopy_reg
_reconstructor
p1
(cexeco_engine.sweep
HashableDict
p2
c__builtin__
dict
p3
(dp4
S'latency'
p5
I1000
sS'iteration'
p6
I5
sS'benchmarks'
p7
S'Contentions'
p8
stRp9
.ccopy_reg
_reconstructor
p1
(cexeco_engine.sweep
HashableDict
p2
c__builtin__
dict
p3
(dp4
S'latency'
p5
I403
sS'iteration'
p6
I3
sS'benchmarks'
p7
S'Contentions'
p8
stRp9
.ccopy_reg
_reconstructor
p1
(cexeco_engine.sweep
HashableDict
p2
c__builtin__
dict
p3
(dp4
S'latency'
p5
I148
sS'iteration'
p6
I1
sS'benchmarks'
p7
S'Contentions'
p8
stRp9
.ccopy_reg
_reconstructor
p1
(cexeco_engine.sweep
HashableDict
p2
c__builtin__
dict
p3
(dp4
S'latency'
p5
I403
sS'iteration'
p6
I4
sS'benchmarks'
p7
S'convergence'
p8
stRp9
.ccopy_reg
_reconstructor
p1
(cexeco_engine.sweep
HashableDict
p2
c__builtin__
dict
p3
(dp4
S'latency'
p5
I54
sS'iteration'
p6
I4
sS'benchmarks'
p7
S'convergence'
p8
stRp9
.ccopy_reg
_reconstructor
p1
(cexeco_engine.sweep
HashableDict
p2
c__builtin__
dict
p3
(dp4
S'latency'
p5
I20
sS'iteration'
p6
I4
sS'benchmarks'
p7
S'Contentions'
p8
stRp9
.ccopy_reg
_reconstructor
p1
(cexeco_engine.sweep
HashableDict
p2
c__builtin__
dict
p3
(dp4
S'latency'
p5
I20
sS'iteration'
p6
I2
sS'benchmarks'
p7
S'Contentions'
p8
stRp9
.ccopy_reg
_reconstructor
p1
(cexeco_engine.sweep
HashableDict
p2
c__builtin__
dict
p3
(dp4
S'latency'
p5
I665
sS'iteration'
p6
I5
sS'benchmarks'
p7
S'convergence'
p8
stRp9
.ccopy_reg
_reconstructor
p1
(cexeco_engine.sweep
HashableDict
p2
c__builtin__
dict
p3
(dp4
S'latency'
p5
I90
sS'iteration'
p6
I1
sS'benchmarks'
p7
S'convergence'
p8
stRp9
.ccopy_reg
_reconstructor
p1
(cexeco_engine.sweep
HashableDict
p2
c__builtin__
dict
p3
(dp4
S'latency'
p5
I403
sS'iteration'
p6
I1
sS'benchmarks'
p7
S'performances'
p8
stRp9
.ccopy_reg
_reconstructor
p1
(cexeco_engine.sweep
HashableDict
p2
c__builtin__
dict
p3
(dp4
S'latency'
p5
I148
sS'iteration'
p6
I3
sS'benchmarks'
p7
S'performances'
p8
stRp9
.ccopy_reg
_reconstructor
p1
(cexeco_engine.sweep
HashableDict
p2
c__builtin__
dict
p3
(dp4
S'latency'
p5
I33
sS'iteration'
p6
I2
sS'benchmarks'
p7
S'performances'
p8
stRp9
.ccopy_reg
_reconstructor
p1
(cexeco_engine.sweep
HashableDict
p2
c__builtin__
dict
p3
(dp4
S'latency'
p5
I90
sS'iteration'
p6
I2
sS'benchmarks'
p7
S'Contentions'
p8
stRp9
.ccopy_reg
_reconstructor
p1
(cexeco_engine.sweep
HashableDict
p2
c__builtin__
dict
p3
(dp4
S'latency'
p5
I90
sS'iteration'
p6
I2
sS'benchmarks'
p7
S'performances'
p8
stRp9
.ccopy_reg
_reconstructor
p1
(cexeco_engine.sweep
HashableDict
p2
c__builtin__
dict
p3
(dp4
S'latency'
p5
I1000
sS'iteration'
p6
I3
sS'benchmarks'
p7
S'performances'
p8
stRp9
.ccopy_reg
_reconstructor
p1
(cexeco_engine.sweep
HashableDict
p2
c__builtin__
dict
p3
(dp4
S'latency'
p5
I90
sS'iteration'
p6
I5
sS'benchmarks'
p7
S'Contentions'
p8
stRp9
.ccopy_reg
_reconstructor
p1
(cexeco_engine.sweep
HashableDict
p2
c__builtin__
dict
p3
(dp4
S'latency'
p5
I33
sS'iteration'
p6
I5
sS'benchmarks'
p7
S'Contentions'
p8
stRp9
.ccopy_reg
_reconstructor
p1
(cexeco_engine.sweep
HashableDict
p2
c__builtin__
dict
p3
(dp4
S'latency'
p5
I20
sS'iteration'
p6
I5
sS'benchmarks'
p7
S'convergence'
p8
stRp9
.ccopy_reg
_reconstructor
p1
(cexeco_engine.sweep
HashableDict
p2
c__builtin__
dict
p3
(dp4
S'latency'
p5
I33
sS'iteration'
p6
I1
sS'benchmarks'
p7
S'convergence'
p8
stRp9
.ccopy_reg
_reconstructor
p1
(cexeco_engine.sweep
HashableDict
p2
c__builtin__
dict
p3
(dp4
S'latency'
p5
I403
sS'iteration'
p6
I2
sS'benchmarks'
p7
S'convergence'
p8
stRp9
.ccopy_reg
_reconstructor
p1
(cexeco_engine.sweep
HashableDict
p2
c__builtin__
dict
p3
(dp4
S'latency'
p5
I244
sS'iteration'
p6
I4
sS'benchmarks'
p7
S'convergence'
p8
stRp9
.ccopy_reg
_reconstructor
p1
(cexeco_engine.sweep
HashableDict
p2
c__builtin__
dict
p3
(dp4
S'latency'
p5
I244
sS'iteration'
p6
I2
sS'benchmarks'
p7
S'convergence'
p8
stRp9
.ccopy_reg
_reconstructor
p1
(cexeco_engine.sweep
HashableDict
p2
c__builtin__
dict
p3
(dp4
S'latency'
p5
I244
sS'iteration'
p6
I3
sS'benchmarks'
p7
S'Contentions'
p8
stRp9
.ccopy_reg
_reconstructor
p1
(cexeco_engine.sweep
HashableDict
p2
c__builtin__
dict
p3
(dp4
S'latency'
p5
I54
sS'iteration'
p6
I3
sS'benchmarks'
p7
S'convergence'
p8
stRp9
.ccopy_reg
_reconstructor
p1
(cexeco_engine.sweep
HashableDict
p2
c__builtin__
dict
p3
(dp4
S'latency'
p5
I403
sS'iteration'
p6
I1
sS'benchmarks'
p7
S'convergence'
p8
stRp9
.ccopy_reg
_reconstructor
p1
(cexeco_engine.sweep
HashableDict
p2
c__builtin__
dict
p3
(dp4
S'latency'
p5
I33
sS'iteration'
p6
I2
sS'benchmarks'
p7
S'Contentions'
p8
stRp9
.ccopy_reg
_reconstructor
p1
(cexeco_engine.sweep
HashableDict
p2
c__builtin__
dict
p3
(dp4
S'latency'
p5
I54
sS'iteration'
p6
I1
sS'benchmarks'
p7
S'performances'
p8
stRp9
.ccopy_reg
_reconstructor
p1
(cexeco_engine.sweep
HashableDict
p2
c__builtin__
dict
p3
(dp4
S'latency'
p5
I1000
sS'iteration'
p6
I5
sS'benchmarks'
p7
S'convergence'
p8
stRp9
.ccopy_reg
_reconstructor
p1
(cexeco_engine.sweep
HashableDict
p2
c__builtin__
dict
p3
(dp4
S'latency'
p5
I244
sS'iteration'
p6
I1
sS'benchmarks'
p7
S'performances'
p8
stRp9
.ccopy_reg
_reconstructor
p1
(cexeco_engine.sweep
HashableDict
p2
c__builtin__
dict
p3
(dp4
S'latency'
p5
I1000
sS'iteration'
p6
I2
sS'benchmarks'
p7
S'performances'
p8
stRp9
.ccopy_reg
_reconstructor
p1
(cexeco_engine.sweep
HashableDict
p2
c__builtin__
dict
p3
(dp4
S'latency'
p5
I90
sS'iteration'
p6
I3
sS'benchmarks'
p7
S'Contentions'
p8
stRp9
.ccopy_reg
_reconstructor
p1
(cexeco_engine.sweep
HashableDict
p2
c__builtin__
dict
p3
(dp4
S'latency'
p5
I33
sS'iteration'
p6
I1
sS'benchmarks'
p7
S'performances'
p8
stRp9
.ccopy_reg
_reconstructor
p1
(cexeco_engine.sweep
HashableDict
p2
c__builtin__
dict
p3
(dp4
S'latency'
p5
I403
sS'iteration'
p6
I3
sS'benchmarks'
p7
S'convergence'
p8
stRp9
.ccopy_reg
_reconstructor
p1
(cexeco_engine.sweep
HashableDict
p2
c__builtin__
dict
p3
(dp4
S'latency'
p5
I244
sS'iteration'
p6
I4
sS'benchmarks'
p7
S'performances'
p8
stRp9
.ccopy_reg
_reconstructor
p1
(cexeco_engine.sweep
HashableDict
p2
c__builtin__
dict
p3
(dp4
S'latency'
p5
I244
sS'iteration'
p6
I2
sS'benchmarks'
p7
S'performances'
p8
stRp9
.ccopy_reg
_reconstructor
p1
(cexeco_engine.sweep
HashableDict
p2
c__builtin__
dict
p3
(dp4
S'latency'
p5
I665
sS'iteration'
p6
I2
sS'benchmarks'
p7
S'Contentions'
p8
stRp9
.ccopy_reg
_reconstructor
p1
(cexeco_engine.sweep
HashableDict
p2
c__builtin__
dict
p3
(dp4
S'latency'
p5
I148
sS'iteration'
p6
I1
sS'benchmarks'
p7
S'convergence'
p8
stRp9
.ccopy_reg
_reconstructor
p1
(cexeco_engine.sweep
HashableDict
p2
c__builtin__
dict
p3
(dp4
S'latency'
p5
I403
sS'iteration'
p6
I4
sS'benchmarks'
p7
S'Contentions'
p8
stRp9
.ccopy_reg
_reconstructor
p1
(cexeco_engine.sweep
HashableDict
p2
c__builtin__
dict
p3
(dp4
S'latency'
p5
I403
sS'iteration'
p6
I2
sS'benchmarks'
p7
S'Contentions'
p8
stRp9
.ccopy_reg
_reconstructor
p1
(cexeco_engine.sweep
HashableDict
p2
c__builtin__
dict
p3
(dp4
S'latency'
p5
I54
sS'iteration'
p6
I3
sS'benchmarks'
p7
S'Contentions'
p8
stRp9
.ccopy_reg
_reconstructor
p1
(cexeco_engine.sweep
HashableDict
p2
c__builtin__
dict
p3
(dp4
S'latency'
p5
I20
sS'iteration'
p6
I1
sS'benchmarks'
p7
S'Contentions'
p8
stRp9
.ccopy_reg
_reconstructor
p1
(cexeco_engine.sweep
HashableDict
p2
c__builtin__
dict
p3
(dp4
S'latency'
p5
I148
sS'iteration'
p6
I2
sS'benchmarks'
p7
S'Contentions'
p8
stRp9
.ccopy_reg
_reconstructor
p1
(cexeco_engine.sweep
HashableDict
p2
c__builtin__
dict
p3
(dp4
S'latency'
p5
I148
sS'iteration'
p6
I5
sS'benchmarks'
p7
S'Contentions'
p8
stRp9
.ccopy_reg
_reconstructor
p1
(cexeco_engine.sweep
HashableDict
p2
c__builtin__
dict
p3
(dp4
S'latency'
p5
I33
sS'iteration'
p6
I5
sS'benchmarks'
p7
S'convergence'
p8
stRp9
.ccopy_reg
_reconstructor
p1
(cexeco_engine.sweep
HashableDict
p2
c__builtin__
dict
p3
(dp4
S'latency'
p5
I665
sS'iteration'
p6
I1
sS'benchmarks'
p7
S'convergence'
p8
stRp9
.ccopy_reg
_reconstructor
p1
(cexeco_engine.sweep
HashableDict
p2
c__builtin__
dict
p3
(dp4
S'latency'
p5
I148
sS'iteration'
p6
I2
sS'benchmarks'
p7
S'convergence'
p8
stRp9
.ccopy_reg
_reconstructor
p1
(cexeco_engine.sweep
HashableDict
p2
c__builtin__
dict
p3
(dp4
S'latency'
p5
I148
sS'iteration'
p6
I1
sS'benchmarks'
p7
S'performances'
p8
stRp9
.ccopy_reg
_reconstructor
p1
(cexeco_engine.sweep
HashableDict
p2
c__builtin__
dict
p3
(dp4
S'latency'
p5
I403
sS'iteration'
p6
I5
sS'benchmarks'
p7
S'performances'
p8
stRp9
.ccopy_reg
_reconstructor
p1
(cexeco_engine.sweep
HashableDict
p2
c__builtin__
dict
p3
(dp4
S'latency'
p5
I403
sS'iteration'
p6
I3
sS'benchmarks'
p7
S'performances'
p8
stRp9
.ccopy_reg
_reconstructor
p1
(cexeco_engine.sweep
HashableDict
p2
c__builtin__
dict
p3
(dp4
S'latency'
p5
I665
sS'iteration'
p6
I3
sS'benchmarks'
p7
S'performances'
p8
stRp9
.ccopy_reg
_reconstructor
p1
(cexeco_engine.sweep
HashableDict
p2
c__builtin__
dict
p3
(dp4
S'latency'
p5
I665
sS'iteration'
p6
I5
sS'benchmarks'
p7
S'performances'
p8
stRp9
.ccopy_reg
_reconstructor
p1
(cexeco_engine.sweep
HashableDict
p2
c__builtin__
dict
p3
(dp4
S'latency'
p5
I90
sS'iteration'
p6
I3
sS'benchmarks'
p7
S'convergence'
p8
stRp9
.ccopy_reg
_reconstructor
p1
(cexeco_engine.sweep
HashableDict
p2
c__builtin__
dict
p3
(dp4
S'latency'
p5
I244
sS'iteration'
p6
I5
sS'benchmarks'
p7
S'performances'
p8
stRp9
.ccopy_reg
_reconstructor
p1
(cexeco_engine.sweep
HashableDict
p2
c__builtin__
dict
p3
(dp4
S'latency'
p5
I244
sS'iteration'
p6
I3
sS'benchmarks'
p7
S'performances'
p8
stRp9
.ccopy_reg
_reconstructor
p1
(cexeco_engine.sweep
HashableDict
p2
c__builtin__
dict
p3
(dp4
S'latency'
p5
I148
sS'iteration'
p6
I5
sS'benchmarks'
p7
S'convergence'
p8
stRp9
.ccopy_reg
_reconstructor
p1
(cexeco_engine.sweep
HashableDict
p2
c__builtin__
dict
p3
(dp4
S'latency'
p5
I90
sS'iteration'
p6
I1
sS'benchmarks'
p7
S'Contentions'
p8
stRp9
.ccopy_reg
_reconstructor
p1
(cexeco_engine.sweep
HashableDict
p2
c__builtin__
dict
p3
(dp4
S'latency'
p5
I33
sS'iteration'
p6
I5
sS'benchmarks'
p7
S'performances'
p8
stRp9
.ccopy_reg
_reconstructor
p1
(cexeco_engine.sweep
HashableDict
p2
c__builtin__
dict
p3
(dp4
S'latency'
p5
I1000
sS'iteration'
p6
I2
sS'benchmarks'
p7
S'convergence'
p8
stRp9
.ccopy_reg
_reconstructor
p1
(cexeco_engine.sweep
HashableDict
p2
c__builtin__
dict
p3
(dp4
S'latency'
p5
I33
sS'iteration'
p6
I2
sS'benchmarks'
p7
S'convergence'
p8
stRp9
.ccopy_reg
_reconstructor
p1
(cexeco_engine.sweep
HashableDict
p2
c__builtin__
dict
p3
(dp4
S'latency'
p5
I665
sS'iteration'
p6
I4
sS'benchmarks'
p7
S'Contentions'
p8
stRp9
.ccopy_reg
_reconstructor
p1
(cexeco_engine.sweep
HashableDict
p2
c__builtin__
dict
p3
(dp4
S'latency'
p5
I148
sS'iteration'
p6
I4
sS'benchmarks'
p7
S'performances'
p8
stRp9
.ccopy_reg
_reconstructor
p1
(cexeco_engine.sweep
HashableDict
p2
c__builtin__
dict
p3
(dp4
S'latency'
p5
I148
sS'iteration'
p6
I2
sS'benchmarks'
p7
S'performances'
p8
stRp9
.ccopy_reg
_reconstructor
p1
(cexeco_engine.sweep
HashableDict
p2
c__builtin__
dict
p3
(dp4
S'latency'
p5
I54
sS'iteration'
p6
I5
sS'benchmarks'
p7
S'Contentions'
p8
stRp9
.ccopy_reg
_reconstructor
p1
(cexeco_engine.sweep
HashableDict
p2
c__builtin__
dict
p3
(dp4
S'latency'
p5
I90
sS'iteration'
p6
I4
sS'benchmarks'
p7
S'convergence'
p8
stRp9
.ccopy_reg
_reconstructor
p1
(cexeco_engine.sweep
HashableDict
p2
c__builtin__
dict
p3
(dp4
S'latency'
p5
I244
sS'iteration'
p6
I4
sS'benchmarks'
p7
S'Contentions'
p8
stRp9
.ccopy_reg
_reconstructor
p1
(cexeco_engine.sweep
HashableDict
p2
c__builtin__
dict
p3
(dp4
S'latency'
p5
I403
sS'iteration'
p6
I5
sS'benchmarks'
p7
S'convergence'
p8
stRp9
.ccopy_reg
_reconstructor
p1
(cexeco_engine.sweep
HashableDict
p2
c__builtin__
dict
p3
(dp4
S'latency'
p5
I244
sS'iteration'
p6
I2
sS'benchmarks'
p7
S'Contentions'
p8
stRp9
.ccopy_reg
_reconstructor
p1
(cexeco_engine.sweep
HashableDict
p2
c__builtin__
dict
p3
(dp4
S'latency'
p5
I403
sS'iteration'
p6
I4
sS'benchmarks'
p7
S'performances'
p8
stRp9
.ccopy_reg
_reconstructor
p1
(cexeco_engine.sweep
HashableDict
p2
c__builtin__
dict
p3
(dp4
S'latency'
p5
I403
sS'iteration'
p6
I2
sS'benchmarks'
p7
S'performances'
p8
stRp9
.ccopy_reg
_reconstructor
p1
(cexeco_engine.sweep
HashableDict
p2
c__builtin__
dict
p3
(dp4
S'latency'
p5
I665
sS'iteration'
p6
I2
sS'benchmarks'
p7
S'performances'
p8
stRp9
.ccopy_reg
_reconstructor
p1
(cexeco_engine.sweep
HashableDict
p2
c__builtin__
dict
p3
(dp4
S'latency'
p5
I1000
sS'iteration'
p6
I4
sS'benchmarks'
p7
S'Contentions'
p8
stRp9
.ccopy_reg
_reconstructor
p1
(cexeco_engine.sweep
HashableDict
p2
c__builtin__
dict
p3
(dp4
S'latency'
p5
I665
sS'iteration'
p6
I4
sS'benchmarks'
p7
S'performances'
p8
stRp9
.ccopy_reg
_reconstructor
p1
(cexeco_engine.sweep
HashableDict
p2
c__builtin__
dict
p3
(dp4
S'latency'
p5
I90
sS'iteration'
p6
I5
sS'benchmarks'
p7
S'performances'
p8
stRp9
.ccopy_reg
_reconstructor
p1
(cexeco_engine.sweep
HashableDict
p2
c__builtin__
dict
p3
(dp4
S'latency'
p5
I244
sS'iteration'
p6
I1
sS'benchmarks'
p7
S'convergence'
p8
stRp9
.ccopy_reg
_reconstructor
p1
(cexeco_engine.sweep
HashableDict
p2
c__builtin__
dict
p3
(dp4
S'latency'
p5
I33
sS'iteration'
p6
I4
sS'benchmarks'
p7
S'performances'
p8
stRp9
.ccopy_reg
_reconstructor
p1
(cexeco_engine.sweep
HashableDict
p2
c__builtin__
dict
p3
(dp4
S'latency'
p5
I20
sS'iteration'
p6
I5
sS'benchmarks'
p7
S'Contentions'
p8
stRp9
.ccopy_reg
_reconstructor
p1
(cexeco_engine.sweep
HashableDict
p2
c__builtin__
dict
p3
(dp4
S'latency'
p5
I20
sS'iteration'
p6
I3
sS'benchmarks'
p7
S'convergence'
p8
stRp9
.ccopy_reg
_reconstructor
p1
(cexeco_engine.sweep
HashableDict
p2
c__builtin__
dict
p3
(dp4
S'latency'
p5
I148
sS'iteration'
p6
I5
sS'benchmarks'
p7
S'performances'
p8
stRp9
.ccopy_reg
_reconstructor
p1
(cexeco_engine.sweep
HashableDict
p2
c__builtin__
dict
p3
(dp4
S'latency'
p5
I403
sS'iteration'
p6
I1
sS'benchmarks'
p7
S'Contentions'
p8
stRp9
.ccopy_reg
_reconstructor
p1
(cexeco_engine.sweep
HashableDict
p2
c__builtin__
dict
p3
(dp4
S'latency'
p5
I20
sS'iteration'
p6
I4
sS'benchmarks'
p7
S'convergence'
p8
stRp9
.ccopy_reg
_reconstructor
p1
(cexeco_engine.sweep
HashableDict
p2
c__builtin__
dict
p3
(dp4
S'latency'
p5
I20
sS'iteration'
p6
I2
sS'benchmarks'
p7
S'convergence'
p8
stRp9
.ccopy_reg
_reconstructor
p1
(cexeco_engine.sweep
HashableDict
p2
c__builtin__
dict
p3
(dp4
S'latency'
p5
I54
sS'iteration'
p6
I5
sS'benchmarks'
p7
S'convergence'
p8
stRp9
.ccopy_reg
_reconstructor
p1
(cexeco_engine.sweep
HashableDict
p2
c__builtin__
dict
p3
(dp4
S'latency'
p5
I665
sS'iteration'
p6
I2
sS'benchmarks'
p7
S'convergence'
p8
stRp9
.ccopy_reg
_reconstructor
p1
(cexeco_engine.sweep
HashableDict
p2
c__builtin__
dict
p3
(dp4
S'latency'
p5
I20
sS'iteration'
p6
I3
sS'benchmarks'
p7
S'Contentions'
p8
stRp9
.ccopy_reg
_reconstructor
p1
(cexeco_engine.sweep
HashableDict
p2
c__builtin__
dict
p3
(dp4
S'latency'
p5
I54
sS'iteration'
p6
I1
sS'benchmarks'
p7
S'Contentions'
p8
stRp9
.ccopy_reg
_reconstructor
p1
(cexeco_engine.sweep
HashableDict
p2
c__builtin__
dict
p3
(dp4
S'latency'
p5
I90
sS'iteration'
p6
I4
sS'benchmarks'
p7
S'Contentions'
p8
stRp9
.ccopy_reg
_reconstructor
p1
(cexeco_engine.sweep
HashableDict
p2
c__builtin__
dict
p3
(dp4
S'latency'
p5
I1000
sS'iteration'
p6
I5
sS'benchmarks'
p7
S'performances'
p8
stRp9
.ccopy_reg
_reconstructor
p1
(cexeco_engine.sweep
HashableDict
p2
c__builtin__
dict
p3
(dp4
S'latency'
p5
I90
sS'iteration'
p6
I4
sS'benchmarks'
p7
S'performances'
p8
stRp9
.